; Function Attrs: mustprogress uwtable
define hidden noundef zeroext i1 @_ZN4cvc58internal6theory2bv5utils6isZeroENS0_12NodeTemplateILb0EEE(ptr noundef nonnull %0) local_unnamed_addr #3 personality ptr @__gxx_personality_v0 {
  %2 = alloca %"class.cvc5::internal::BitVector", align 8
  %3 = alloca %"class.cvc5::internal::TypeNode", align 8
  %4 = alloca %"class.cvc5::internal::NodeTemplate.0", align 8
  %5 = alloca %"class.cvc5::internal::NodeTemplate", align 8
  %6 = tail call noundef zeroext i1 @_ZNK4cvc58internal12NodeTemplateILb0EE7isConstEv(ptr noundef nonnull align 8 dereferenceable(8) %0)
  br i1 %6, label %.noexc, label %54

.noexc:                                           ; preds = %1
  call void @llvm.lifetime.start.p0(i64 8, ptr nonnull %4) #22
  %7 = load ptr, ptr %0, align 8, !tbaa !10
  store ptr %7, ptr %5, align 8, !tbaa !10
  call void @llvm.lifetime.start.p0(i64 8, ptr nonnull %3) #22
  call void @_ZNK4cvc58internal12NodeTemplateILb0EE7getTypeEb(ptr dead_on_unwind nonnull writable sret(%"class.cvc5::internal::TypeNode") align 8 %3, ptr noundef nonnull align 8 dereferenceable(8) %5, i1 noundef zeroext false)
  %8 = invoke noundef i32 @_ZNK4cvc58internal8TypeNode16getBitVectorSizeEv(ptr noundef nonnull align 8 dereferenceable(8) %3)
          to label %9 unwind label %23

9:                                                ; preds = %.noexc
  %10 = load ptr, ptr %3, align 8, !tbaa !3
  %11 = load i64, ptr %10, align 8
  %12 = and i64 %11, 1152920405095219200
  %.not.i.i.i = icmp eq i64 %12, 1152920405095219200
  br i1 %.not.i.i.i, label %.noexc2, label %13, !prof !9

13:                                               ; preds = %9
  %14 = add i64 %11, 1152920405095219200
  %15 = and i64 %14, 1152920405095219200
  %16 = and i64 %11, -1152920405095219201
  %17 = or disjoint i64 %15, %16
  store i64 %17, ptr %10, align 8
  %18 = icmp eq i64 %15, 0
  br i1 %18, label %19, label %.noexc2, !prof !9

19:                                               ; preds = %13
  invoke void @_ZN4cvc58internal4expr9NodeValue15markForDeletionEv(ptr noundef nonnull align 8 dereferenceable(24) %10)
          to label %.noexc2 unwind label %20

20:                                               ; preds = %19
  %21 = landingpad { ptr, i32 }
          catch ptr null
  %22 = extractvalue { ptr, i32 } %21, 0
  call void @__clang_call_terminate(ptr %22) #23
  unreachable

23:                                               ; preds = %.noexc
  %24 = landingpad { ptr, i32 }
          cleanup
  call void @_ZN4cvc58internal8TypeNodeD2Ev(ptr noundef nonnull align 8 dereferenceable(8) %3) #22
  call void @llvm.lifetime.end.p0(i64 8, ptr nonnull %3) #22
  br label %.body

.noexc2:                                          ; preds = %19, %13, %9
  call void @llvm.lifetime.end.p0(i64 8, ptr nonnull %3) #22
  call void @llvm.lifetime.start.p0(i64 24, ptr nonnull %2) #22, !noalias !36
  call void @_ZN4cvc58internal9BitVectorC2Ejj(ptr noundef nonnull align 8 dereferenceable(24) %2, i32 noundef %8, i32 noundef 0)
  %25 = invoke noundef ptr @_ZN4cvc58internal11NodeManager9currentNMEv()
          to label %26 unwind label %32, !noalias !36

26:                                               ; preds = %.noexc2
  invoke void @_ZN4cvc58internal11NodeManager7mkConstINS0_9BitVectorEEENS0_12NodeTemplateILb1EEERKT_(ptr dead_on_unwind nonnull writable sret(%"class.cvc5::internal::NodeTemplate.0") align 8 %4, ptr noundef nonnull align 8 dereferenceable(3560) %25, ptr noundef nonnull align 8 dereferenceable(24) %2)
          to label %27 unwind label %32

27:                                               ; preds = %26
  %28 = getelementptr inbounds nuw i8, ptr %2, i64 8
  invoke void @__gmpz_clear(ptr noundef nonnull align 8 dereferenceable(16) %28)
          to label %38 unwind label %29

29:                                               ; preds = %27
  %30 = landingpad { ptr, i32 }
          catch ptr null
  %31 = extractvalue { ptr, i32 } %30, 0
  call void @__clang_call_terminate(ptr %31) #23
  unreachable

32:                                               ; preds = %26, %.noexc2
  %33 = landingpad { ptr, i32 }
          cleanup
  %34 = getelementptr inbounds nuw i8, ptr %2, i64 8
  invoke void @__gmpz_clear(ptr noundef nonnull align 8 dereferenceable(16) %34)
          to label %_ZN4cvc58internal9BitVectorD2Ev.exit3.i.i unwind label %35

35:                                               ; preds = %32
  %36 = landingpad { ptr, i32 }
          catch ptr null
  %37 = extractvalue { ptr, i32 } %36, 0
  call void @__clang_call_terminate(ptr %37) #23
  unreachable

_ZN4cvc58internal9BitVectorD2Ev.exit3.i.i:        ; preds = %32
  call void @llvm.lifetime.end.p0(i64 24, ptr nonnull %2) #22, !noalias !36
  br label %.body

38:                                               ; preds = %27
  call void @llvm.lifetime.end.p0(i64 24, ptr nonnull %2) #22, !noalias !36
  %39 = load ptr, ptr %0, align 8, !tbaa !10
  %40 = load ptr, ptr %4, align 8, !tbaa !21
  %41 = icmp eq ptr %39, %40
  %42 = load i64, ptr %40, align 8
  %43 = and i64 %42, 1152920405095219200
  %.not.i.i = icmp eq i64 %43, 1152920405095219200
  br i1 %.not.i.i, label %_ZN4cvc58internal12NodeTemplateILb1EED2Ev.exit, label %44, !prof !9

44:                                               ; preds = %38
  %45 = add i64 %42, 1152920405095219200
  %46 = and i64 %45, 1152920405095219200
  %47 = and i64 %42, -1152920405095219201
  %48 = or disjoint i64 %46, %47
  store i64 %48, ptr %40, align 8
  %49 = icmp eq i64 %46, 0
  br i1 %49, label %50, label %_ZN4cvc58internal12NodeTemplateILb1EED2Ev.exit, !prof !9

50:                                               ; preds = %44
  invoke void @_ZN4cvc58internal4expr9NodeValue15markForDeletionEv(ptr noundef nonnull align 8 dereferenceable(24) %40)
          to label %_ZN4cvc58internal12NodeTemplateILb1EED2Ev.exit unwind label %51

51:                                               ; preds = %50
  %52 = landingpad { ptr, i32 }
          catch ptr null
  %53 = extractvalue { ptr, i32 } %52, 0
  call void @__clang_call_terminate(ptr %53) #23
  unreachable

_ZN4cvc58internal12NodeTemplateILb1EED2Ev.exit:   ; preds = %38, %44, %50
  call void @llvm.lifetime.end.p0(i64 8, ptr nonnull %4) #22
  br label %54

.body:                                            ; preds = %_ZN4cvc58internal9BitVectorD2Ev.exit3.i.i, %23
  %eh.lpad-body = phi { ptr, i32 } [ %24, %23 ], [ %33, %_ZN4cvc58internal9BitVectorD2Ev.exit3.i.i ]
  call void @llvm.lifetime.end.p0(i64 8, ptr nonnull %4) #22
  resume { ptr, i32 } %eh.lpad-body

54:                                               ; preds = %1, %_ZN4cvc58internal12NodeTemplateILb1EED2Ev.exit
  %.0 = phi i1 [ %41, %_ZN4cvc58internal12NodeTemplateILb1EED2Ev.exit ], [ false, %1 ]
  ret i1 %.0
}